target datalayout = "e-m:e-p270:32:32-p271:32:32-p272:64:64-i64:64-i128:128-f80:128-n8:16:32:64-S128"
target triple = "x86_64-pc-linux-gnu"

%"struct.cv::Ptr" = type { %"class.std::shared_ptr" }
%"class.std::shared_ptr" = type { %"class.std::__shared_ptr" }
%"class.std::__shared_ptr" = type { ptr, %"class.std::__shared_count" }
%"class.std::__shared_count" = type { ptr }
%"class.cv::Mat" = type { i32, i32, i32, i32, ptr, ptr, ptr, ptr, ptr, ptr, %"struct.cv::MatSize", %"struct.cv::MatStep" }
%"struct.cv::MatSize" = type { ptr }
%"struct.cv::MatStep" = type { ptr, [2 x i64] }
%"class.cv::rgbd::Odometry" = type { %"class.cv::Algorithm" }
%"class.cv::Algorithm" = type { ptr }
%"class.cv::rgbd::ICPOdometry" = type { %"class.cv::rgbd::Odometry", double, double, double, double, %"class.cv::Mat", %"class.cv::Mat", i32, double, double, %"struct.cv::Ptr" }

; Function Attrs: mustprogress nounwind uwtable
define linkonce_odr hidden void @_ZNSt14__shared_countILN9__gnu_cxx12_Lock_policyE2EEC2Ev(ptr noundef nonnull align 8 dereferenceable(8) %0) unnamed_addr #7 comdat align 2 {
  %2 = alloca ptr, align 8
  store ptr %0, ptr %2, align 8, !tbaa !238
  %3 = load ptr, ptr %2, align 8
  %4 = getelementptr inbounds nuw %"class.std::__shared_count", ptr %3, i32 0, i32 0
  store ptr null, ptr %4, align 8, !tbaa !240
  ret void
}

; Function Attrs: mustprogress nounwind uwtable
define linkonce_odr hidden void @_ZNSt12__shared_ptrIN2cv4rgbd11RgbdNormalsELN9__gnu_cxx12_Lock_policyE2EEC2Ev(ptr noundef nonnull align 8 dereferenceable(16) %0) unnamed_addr #7 comdat align 2 {
  %2 = alloca ptr, align 8
  store ptr %0, ptr %2, align 8, !tbaa !408
  %3 = load ptr, ptr %2, align 8
  %4 = getelementptr inbounds nuw %"class.std::__shared_ptr", ptr %3, i32 0, i32 0
  store ptr null, ptr %4, align 8, !tbaa !411
  %5 = getelementptr inbounds nuw %"class.std::__shared_ptr", ptr %3, i32 0, i32 1
  call void @_ZNSt14__shared_countILN9__gnu_cxx12_Lock_policyE2EEC2Ev(ptr noundef nonnull align 8 dereferenceable(8) %5) #3
  ret void
}

; Function Attrs: mustprogress nounwind uwtable
define linkonce_odr hidden void @_ZNSt10shared_ptrIN2cv4rgbd11RgbdNormalsEEC2Ev(ptr noundef nonnull align 8 dereferenceable(16) %0) unnamed_addr #7 comdat align 2 {
  %2 = alloca ptr, align 8
  store ptr %0, ptr %2, align 8, !tbaa !406
  %3 = load ptr, ptr %2, align 8
  call void @_ZNSt12__shared_ptrIN2cv4rgbd11RgbdNormalsELN9__gnu_cxx12_Lock_policyE2EEC2Ev(ptr noundef nonnull align 8 dereferenceable(16) %3) #3
  ret void
}

; Function Attrs: inlinehint mustprogress nounwind uwtable
define linkonce_odr hidden void @_ZN2cv3PtrINS_4rgbd11RgbdNormalsEEC2Ev(ptr noundef nonnull align 8 dereferenceable(16) %0) unnamed_addr #11 comdat align 2 {
  %2 = alloca ptr, align 8
  store ptr %0, ptr %2, align 8, !tbaa !152
  %3 = load ptr, ptr %2, align 8
  call void @_ZNSt10shared_ptrIN2cv4rgbd11RgbdNormalsEEC2Ev(ptr noundef nonnull align 8 dereferenceable(16) %3) #3
  ret void
}

; Function Attrs: inlinehint mustprogress nounwind uwtable
define linkonce_odr hidden noundef float @_ZN2cv4rgbd8Odometry20DEFAULT_MAX_ROTATIONEv() #11 comdat align 2 {
  ret float 1.500000e+01
}

; Function Attrs: inlinehint mustprogress nounwind uwtable
define linkonce_odr hidden noundef float @_ZN2cv4rgbd8Odometry23DEFAULT_MAX_TRANSLATIONEv() #11 comdat align 2 {
  ret float 0x3FC3333340000000
}

; Function Attrs: inlinehint mustprogress nounwind uwtable
define linkonce_odr hidden noundef float @_ZN2cv4rgbd8Odometry23DEFAULT_MAX_POINTS_PARTEv() #11 comdat align 2 {
  ret float 0x3FB1EB8520000000
}

; Function Attrs: inlinehint mustprogress nounwind uwtable
define linkonce_odr hidden noundef float @_ZN2cv4rgbd8Odometry22DEFAULT_MAX_DEPTH_DIFFEv() #11 comdat align 2 {
  ret float 0x3FB1EB8520000000
}

; Function Attrs: inlinehint mustprogress nounwind uwtable
define linkonce_odr hidden noundef float @_ZN2cv4rgbd8Odometry17DEFAULT_MAX_DEPTHEv() #11 comdat align 2 {
  ret float 4.000000e+00
}

; Function Attrs: inlinehint mustprogress nounwind uwtable
define linkonce_odr hidden noundef float @_ZN2cv4rgbd8Odometry17DEFAULT_MIN_DEPTHEv() #11 comdat align 2 {
  ret float 0.000000e+00
}

; Function Attrs: inlinehint mustprogress uwtable
define linkonce_odr hidden void @_ZN2cv4rgbd8OdometryC2Ev(ptr noundef nonnull align 8 dereferenceable(8) %0) unnamed_addr #4 comdat align 2 {
  %2 = alloca ptr, align 8
  store ptr %0, ptr %2, align 8, !tbaa !37
  %3 = load ptr, ptr %2, align 8
  call void @_ZN2cv9AlgorithmC2Ev(ptr noundef nonnull align 8 dereferenceable(8) %3)
  store ptr getelementptr inbounds inrange(-16, 120) ({ [17 x ptr] }, ptr @_ZTVN2cv4rgbd8OdometryE, i32 0, i32 0, i32 2), ptr %3, align 8, !tbaa !18
  ret void
}

; Function Attrs: mustprogress uwtable
define void @_ZN2cv4rgbd11ICPOdometryC2Ev(ptr noundef nonnull align 8 dereferenceable(272) %0) unnamed_addr #6 align 2 personality ptr @__gxx_personality_v0 {
  %2 = alloca ptr, align 8
  %3 = alloca ptr, align 8
  %4 = alloca i32, align 4
  store ptr %0, ptr %2, align 8, !tbaa !138
  %5 = load ptr, ptr %2, align 8
  call void @_ZN2cv4rgbd8OdometryC2Ev(ptr noundef nonnull align 8 dereferenceable(8) %5)
  store ptr getelementptr inbounds inrange(-16, 120) ({ [17 x ptr] }, ptr @_ZTVN2cv4rgbd11ICPOdometryE, i32 0, i32 0, i32 2), ptr %5, align 8, !tbaa !18
  %6 = getelementptr inbounds nuw %"class.cv::rgbd::ICPOdometry", ptr %5, i32 0, i32 1
  %7 = invoke noundef float @_ZN2cv4rgbd8Odometry17DEFAULT_MIN_DEPTHEv()
          to label %8 unwind label %36

8:                                                ; preds = %1
  %9 = fpext float %7 to double
  store double %9, ptr %6, align 8, !tbaa !140
  %10 = getelementptr inbounds nuw %"class.cv::rgbd::ICPOdometry", ptr %5, i32 0, i32 2
  %11 = invoke noundef float @_ZN2cv4rgbd8Odometry17DEFAULT_MAX_DEPTHEv()
          to label %12 unwind label %36

12:                                               ; preds = %8
  %13 = fpext float %11 to double
  store double %13, ptr %10, align 8, !tbaa !146
  %14 = getelementptr inbounds nuw %"class.cv::rgbd::ICPOdometry", ptr %5, i32 0, i32 3
  %15 = invoke noundef float @_ZN2cv4rgbd8Odometry22DEFAULT_MAX_DEPTH_DIFFEv()
          to label %16 unwind label %36

16:                                               ; preds = %12
  %17 = fpext float %15 to double
  store double %17, ptr %14, align 8, !tbaa !147
  %18 = getelementptr inbounds nuw %"class.cv::rgbd::ICPOdometry", ptr %5, i32 0, i32 4
  %19 = invoke noundef float @_ZN2cv4rgbd8Odometry23DEFAULT_MAX_POINTS_PARTEv()
          to label %20 unwind label %36

20:                                               ; preds = %16
  %21 = fpext float %19 to double
  store double %21, ptr %18, align 8, !tbaa !148
  %22 = getelementptr inbounds nuw %"class.cv::rgbd::ICPOdometry", ptr %5, i32 0, i32 5
  call void @_ZN2cv3MatC1Ev(ptr noundef nonnull align 8 dereferenceable(96) %22) #3
  %23 = getelementptr inbounds nuw %"class.cv::rgbd::ICPOdometry", ptr %5, i32 0, i32 6
  call void @_ZN2cv3MatC1Ev(ptr noundef nonnull align 8 dereferenceable(96) %23) #3
  %24 = getelementptr inbounds nuw %"class.cv::rgbd::ICPOdometry", ptr %5, i32 0, i32 7
  store i32 4, ptr %24, align 8, !tbaa !149
  %25 = getelementptr inbounds nuw %"class.cv::rgbd::ICPOdometry", ptr %5, i32 0, i32 8
  %26 = invoke noundef float @_ZN2cv4rgbd8Odometry23DEFAULT_MAX_TRANSLATIONEv()
          to label %27 unwind label %40

27:                                               ; preds = %20
  %28 = fpext float %26 to double
  store double %28, ptr %25, align 8, !tbaa !150
  %29 = getelementptr inbounds nuw %"class.cv::rgbd::ICPOdometry", ptr %5, i32 0, i32 9
  %30 = invoke noundef float @_ZN2cv4rgbd8Odometry20DEFAULT_MAX_ROTATIONEv()
          to label %31 unwind label %40

31:                                               ; preds = %27
  %32 = fpext float %30 to double
  store double %32, ptr %29, align 8, !tbaa !151
  %33 = getelementptr inbounds nuw %"class.cv::rgbd::ICPOdometry", ptr %5, i32 0, i32 10
  call void @_ZN2cv3PtrINS_4rgbd11RgbdNormalsEEC2Ev(ptr noundef nonnull align 8 dereferenceable(16) %33) #3
  %34 = getelementptr inbounds nuw %"class.cv::rgbd::ICPOdometry", ptr %5, i32 0, i32 5
  invoke void @_ZN2cv4rgbdL20setDefaultIterCountsERNS_3MatE(ptr noundef nonnull align 8 dereferenceable(96) %34)
          to label %35 unwind label %44

35:                                               ; preds = %31
  ret void

36:                                               ; preds = %16, %12, %8, %1
  %37 = landingpad { ptr, i32 }
          cleanup
  %38 = extractvalue { ptr, i32 } %37, 0
  store ptr %38, ptr %3, align 8
  %39 = extractvalue { ptr, i32 } %37, 1
  store i32 %39, ptr %4, align 4
  br label %49

40:                                               ; preds = %27, %20
  %41 = landingpad { ptr, i32 }
          cleanup
  %42 = extractvalue { ptr, i32 } %41, 0
  store ptr %42, ptr %3, align 8
  %43 = extractvalue { ptr, i32 } %41, 1
  store i32 %43, ptr %4, align 4
  br label %48

44:                                               ; preds = %31
  %45 = landingpad { ptr, i32 }
          cleanup
  %46 = extractvalue { ptr, i32 } %45, 0
  store ptr %46, ptr %3, align 8
  %47 = extractvalue { ptr, i32 } %45, 1
  store i32 %47, ptr %4, align 4
  call void @_ZNSt12__shared_ptrIN2cv4rgbd11RgbdNormalsELN9__gnu_cxx12_Lock_policyE2EED2Ev(ptr noundef nonnull align 8 dereferenceable(16) %33) #3
  br label %48

48:                                               ; preds = %44, %40
  call void @_ZN2cv3MatD1Ev(ptr noundef nonnull align 8 dereferenceable(96) %23) #3
  call void @_ZN2cv3MatD1Ev(ptr noundef nonnull align 8 dereferenceable(96) %22) #3
  br label %49

49:                                               ; preds = %48, %36
  call void @_ZN2cv9AlgorithmD2Ev(ptr noundef nonnull align 8 dereferenceable(8) %5) #3
  br label %50

50:                                               ; preds = %49
  %51 = load ptr, ptr %3, align 8
  %52 = load i32, ptr %4, align 4
  %53 = insertvalue { ptr, i32 } poison, ptr %51, 0
  %54 = insertvalue { ptr, i32 } %53, i32 %52, 1
  resume { ptr, i32 } %54
}