; Function Attrs: mustprogress uwtable
define void @_ZN2cv4rgbd11ICPOdometryC2Ev(ptr noundef nonnull align 8 dereferenceable(272) %0) unnamed_addr #4 align 2 personality ptr @__gxx_personality_v0 {
  tail call void @_ZN2cv9AlgorithmC2Ev(ptr noundef nonnull align 8 dereferenceable(8) %0)
  store ptr getelementptr inbounds nuw inrange(-16, 120) (i8, ptr @_ZTVN2cv4rgbd11ICPOdometryE, i64 16), ptr %0, align 8, !tbaa !15
  %2 = getelementptr inbounds nuw i8, ptr %0, i64 8
  store double 0.000000e+00, ptr %2, align 8, !tbaa !253
  %3 = getelementptr inbounds nuw i8, ptr %0, i64 16
  store double 4.000000e+00, ptr %3, align 8, !tbaa !257
  %4 = getelementptr inbounds nuw i8, ptr %0, i64 24
  store double 0x3FB1EB8520000000, ptr %4, align 8, !tbaa !258
  %5 = getelementptr inbounds nuw i8, ptr %0, i64 32
  store double 0x3FB1EB8520000000, ptr %5, align 8, !tbaa !259
  %6 = getelementptr inbounds nuw i8, ptr %0, i64 40
  tail call void @_ZN2cv3MatC1Ev(ptr noundef nonnull align 8 dereferenceable(96) %6) #31
  %7 = getelementptr inbounds nuw i8, ptr %0, i64 136
  tail call void @_ZN2cv3MatC1Ev(ptr noundef nonnull align 8 dereferenceable(96) %7) #31
  %8 = getelementptr inbounds nuw i8, ptr %0, i64 232
  store i32 4, ptr %8, align 8, !tbaa !260
  %9 = getelementptr inbounds nuw i8, ptr %0, i64 240
  store double 0x3FC3333340000000, ptr %9, align 8, !tbaa !261
  %10 = getelementptr inbounds nuw i8, ptr %0, i64 248
  store double 1.500000e+01, ptr %10, align 8, !tbaa !262
  %11 = getelementptr inbounds nuw i8, ptr %0, i64 256
  tail call void @llvm.memset.p0.i64(ptr noundef nonnull align 8 dereferenceable(16) %11, i8 0, i64 16, i1 false)
  invoke fastcc void @_ZN2cv4rgbdL20setDefaultIterCountsERNS_3MatE(ptr noundef nonnull align 8 dereferenceable(96) %6)
          to label %12 unwind label %13

12:                                               ; preds = %1
  ret void

13:                                               ; preds = %1
  %14 = landingpad { ptr, i32 }
          cleanup
  tail call void @_ZNSt12__shared_ptrIN2cv4rgbd11RgbdNormalsELN9__gnu_cxx12_Lock_policyE2EED2Ev(ptr noundef nonnull align 8 dereferenceable(16) %11) #31
  tail call void @_ZN2cv3MatD1Ev(ptr noundef nonnull align 8 dereferenceable(96) %7) #31
  tail call void @_ZN2cv3MatD1Ev(ptr noundef nonnull align 8 dereferenceable(96) %6) #31
  tail call void @_ZN2cv9AlgorithmD2Ev(ptr noundef nonnull align 8 dereferenceable(8) %0) #31
  resume { ptr, i32 } %14
}